(dp0
I1
ccopy_reg
_reconstructor
p1
(cgeometry_msgs.msg._Pose
Pose
p2
c__builtin__
object
p3
Ntp4
Rp5
(lp6
g1
(cgeometry_msgs.msg._Point
Point
p7
g3
Ntp8
Rp9
(lp10
I0
aI0
aI0
abag1
(cgeometry_msgs.msg._Quaternion
Quaternion
p11
g3
Ntp12
Rp13
(lp14
I0
aI0
aI0
aI1
ababsI2
g1
(g2
g3
Ntp15
Rp16
(lp17
g1
(g7
g3
Ntp18
Rp19
(lp20
F-0.022440677508711815
aF0.5000320076942444
aF-0.033832449465990067
abag1
(g11
g3
Ntp21
Rp22
(lp23
F0.00020454709769303578
aF-0.007259668519468361
aF-0.004573123731953121
aF0.999963170278188
ababsI3
g1
(g2
g3
Ntp24
Rp25
(lp26
g1
(g7
g3
Ntp27
Rp28
(lp29
F0.2927427589893341
aF-0.008241557516157627
aF-0.023984698578715324
abag1
(g11
g3
Ntp30
Rp31
(lp32
F0.0027054020413768485
aF-0.00602051481875163
aF-0.0018045524077895403
aF0.9999765886218132
ababsI4
g1
(g2
g3
Ntp33
Rp34
(lp35
g1
(g7
g3
Ntp36
Rp37
(lp38
F0.2791270315647125
aF0.49508336186408997
aF-0.04895557463169098
abag1
(g11
g3
Ntp39
Rp40
(lp41
F-0.0006288478005067776
aF-0.00524275160219433
aF-0.003520958054813746
aF0.9999798602774245
ababsI5
g1
(g2
g3
Ntp42
Rp43
(lp44
g1
(g7
g3
Ntp45
Rp46
(lp47
F0.5950954556465149
aF-0.013078592717647552
aF-0.036165330559015274
abag1
(g11
g3
Ntp48
Rp49
(lp50
F-0.00012215702347735517
aF-0.0038776850401737377
aF-0.003209050525904739
aF0.9999873252352316
ababsI6
g1
(g2
g3
Ntp51
Rp52
(lp53
g1
(g7
g3
Ntp54
Rp55
(lp56
F0.5842278003692627
aF0.4913259744644165
aF-0.056568264961242676
abag1
(g11
g3
Ntp57
Rp58
(lp59
F-0.0004997366734122929
aF-0.008295532106392703
aF-0.003937755581083922
aF0.999957713351576
ababsI7
g1
(g2
g3
Ntp60
Rp61
(lp62
g1
(g7
g3
Ntp63
Rp64
(lp65
F0.9009449481964111
aF-0.015388092957437038
aF-0.04036172479391098
abag1
(g11
g3
Ntp66
Rp67
(lp68
F0.0026898417743346265
aF-0.0034507168768029704
aF-0.002829088137475334
aF0.9999864266901706
ababsI8
g1
(g2
g3
Ntp69
Rp70
(lp71
g1
(g7
g3
Ntp72
Rp73
(lp74
F0.8847832083702087
aF0.4849177896976471
aF-0.043190814554691315
abag1
(g11
g3
Ntp75
Rp76
(lp77
F0.01106746959977949
aF-0.013135124909080965
aF-0.008030032591436273
aF0.9998202329353318
ababsI9
g1
(g2
g3
Ntp78
Rp79
(lp80
g1
(g7
g3
Ntp81
Rp82
(lp83
F1.1967041492462158
aF-0.020740579813718796
aF-0.04136035591363907
abag1
(g11
g3
Ntp84
Rp85
(lp86
F0.007739893262433256
aF-0.005760554658518735
aF-0.0042607273212111885
aF0.9999443765855213
ababsI10
g1
(g2
g3
Ntp87
Rp88
(lp89
g1
(g7
g3
Ntp90
Rp91
(lp92
F1.196744441986084
aF0.48514899611473083
aF-0.06292621791362762
abag1
(g11
g3
Ntp93
Rp94
(lp95
F-0.0011126674777343726
aF-0.0014228443882371745
aF-0.005221382046016034
aF0.9999847372107538
ababs.