(dp0
I1
(F0.9202971574575627
F0.5474800358261738
F0.7602058522759652
tp1
sI2
(F0.6604750316171193
F0.6820204124605089
F0.9176829789398226
tp2
sI3
(F0.7248058669207786
F0.8556293196526388
F0.9060803945293885
tp3
sI4
(F0.9093898549384409
F0.5171733419582113
F0.7133813346348379
tp4
sI5
(F0.9520807942680252
F0.8332151124731324
F0.7361019889070917
tp5
sI6
(F0.5480552964289092
F0.7294754538585058
F0.8661400560739828
tp6
sI7
(F0.786256659381443
F0.7333752112085782
F0.930567340044268
tp7
sI8
(F0.5008325310759902
F0.5755285324229712
F0.9904637967407164
tp8
sI9
(F0.9808518395153756
F0.9990492947950255
F0.9558516731249105
tp9
sI10
(F0.7746927462940261
F0.9776717093097139
F0.7602843865988625
tp10
s.